target datalayout = "e-m:e-p270:32:32-p271:32:32-p272:64:64-i64:64-i128:128-f80:128-n8:16:32:64-S128"
target triple = "x86_64-pc-linux-gnu"

%struct.redisServer = type { i32, i64, ptr, ptr, ptr, i32, i32, i32, i32, i32, ptr, ptr, ptr, ptr, ptr, i32, i32, i32, i32, i64, i32, i32, i32, i32, ptr, i32, i32, [41 x i8], i32, i64, i32, i32, i32, ptr, ptr, i32, i32, i64, ptr, ptr, ptr, ptr, [2 x i32], i32, i32, i32, i32, i32, i32, [16 x ptr], i32, ptr, ptr, i32, [8 x %struct.connListener], i32, %struct.connListener, ptr, ptr, ptr, ptr, ptr, ptr, ptr, ptr, ptr, ptr, i32, ptr, i32, ptr, [3 x %struct.pause_event], [256 x i8], ptr, i64, i32, i32, [128 x i32], i32, i32, i64, i32, i32, i32, i32, i32, i64, i64, i64, i64, i64, i64, i64, i64, i64, i64, double, i64, i64, i64, i64, i64, i64, i64, i64, i64, i64, i64, i64, i64, i64, i64, i64, i64, i64, i64, i64, i64, double, i64, i64, i64, i64, i64, ptr, i64, i64, i64, %struct.malloc_stats, i64, i64, i64, i64, i64, i64, i64, i64, i64, i64, i64, i64, double, [4 x i64], i64, i64, i64, i64, [128 x i64], [128 x i64], i64, i64, [7 x %struct.anon], i64, i64, i64, i64, i64, i64, [4 x %struct.durationStats], i32, i32, i32, i32, i32, i32, i32, i32, i32, i32, i32, i32, i64, i32, i32, i32, i32, i64, i64, i32, i32, i32, i32, i32, ptr, [3 x %struct.clientBufferLimitsConfig], i32, i32, i32, ptr, i32, i32, i32, i32, i32, i32, ptr, ptr, i32, i32, i64, i64, i64, i64, i64, i32, i32, ptr, i32, i32, i64, i64, i64, i64, i64, i32, i32, i64, i32, i32, i32, i32, i32, i32, i32, i32, ptr, i32, i64, i64, i64, i64, i32, ptr, i32, ptr, i32, i32, i32, i64, i64, i64, i64, i32, i32, i32, i32, i32, i32, ptr, i32, i32, ptr, i32, i32, i32, [2 x i32], i32, %struct.redisOpArray, i32, ptr, i32, ptr, i32, i32, i32, i32, i32, i32, i32, [41 x i8], [41 x i8], i64, i64, i64, i64, i32, i32, ptr, i64, i64, %struct.replDataBuf, i64, i64, i32, i32, i32, i32, i32, i32, i32, i32, i32, i64, ptr, i64, ptr, ptr, ptr, i32, i32, ptr, ptr, i32, i32, i32, i64, i64, i64, i64, ptr, ptr, i32, ptr, i64, i32, i32, i32, i64, i32, i32, i32, i32, ptr, i32, i32, [41 x i8], i64, i32, ptr, i32, i32, i64, i64, i32, i32, i32, i32, i32, i64, [3 x i32], i32, i32, i32, [10 x i32], ptr, ptr, i32, i64, ptr, ptr, i32, i32, i32, i32, i64, i64, i64, i64, i64, i64, i64, i64, i64, i64, i32, i32, i64, i64, i32, i64, i64, i64, i64, i64, ptr, ptr, i32, ptr, i32, i32, i32, i32, i64, i64, ptr, ptr, i32, i32, i32, i32, i32, ptr, ptr, ptr, i32, i32, i32, i32, i32, i32, i32, i64, i32, i32, i64, i32, i32, i32, i32, i32, i32, i32, i64, ptr, ptr, i64, ptr, i32, %struct.aclInfo, i32, i64, i32, i32, i32, %struct.redisTLSContextConfig, ptr, ptr, ptr, ptr, ptr, i64, i32, ptr, i32, i32, i32, i64, i32, ptr }
%struct.connListener = type { [16 x i32], i32, ptr, i32, i32, ptr, ptr }
%struct.pause_event = type { i32, i64 }
%struct.malloc_stats = type { i64, i64, i64, i64, i64, i64, i64, i64, i64, i64, i64 }
%struct.anon = type { i64, i64, [16 x i64], i32 }
%struct.durationStats = type { i64, i64, i64 }
%struct.clientBufferLimitsConfig = type { i64, i64, i64 }
%struct.redisOpArray = type { ptr, i32, i32 }
%struct.replDataBuf = type { ptr, i64, i64, i64, i64 }
%struct.aclInfo = type { i64, i64, i64, i64 }
%struct.redisTLSContextConfig = type { ptr, ptr, ptr, ptr, ptr, ptr, ptr, ptr, ptr, ptr, ptr, ptr, i32, i32, i32, i32 }
%struct.redisDb = type { ptr, ptr, ptr, ptr, ptr, ptr, ptr, i32, i64, i64, ptr }

@server = external global %struct.redisServer, align 8

; Function Attrs: nounwind uwtable
define dso_local void @swapMainDbWithTempDb(ptr noundef %0) #0 {
  %2 = alloca ptr, align 8
  %3 = alloca i32, align 4
  %4 = alloca %struct.redisDb, align 8
  %5 = alloca ptr, align 8
  %6 = alloca ptr, align 8
  store ptr %0, ptr %2, align 8, !tbaa !12
  call void @llvm.lifetime.start.p0(i64 4, ptr %3) #15
  store i32 0, ptr %3, align 4, !tbaa !14
  br label %7

7:                                                ; preds = %75, %1
  %8 = load i32, ptr %3, align 4, !tbaa !14
  %9 = load i32, ptr getelementptr inbounds nuw (%struct.redisServer, ptr @server, i32 0, i32 178), align 8, !tbaa !91
  %10 = icmp slt i32 %8, %9
  br i1 %10, label %12, label %11

11:                                               ; preds = %7
  call void @llvm.lifetime.end.p0(i64 4, ptr %3) #15
  br label %78

12:                                               ; preds = %7
  call void @llvm.lifetime.start.p0(i64 88, ptr %4) #15
  %13 = load ptr, ptr getelementptr inbounds nuw (%struct.redisServer, ptr @server, i32 0, i32 10), align 8, !tbaa !99
  %14 = load i32, ptr %3, align 4, !tbaa !14
  %15 = sext i32 %14 to i64
  %16 = getelementptr inbounds %struct.redisDb, ptr %13, i64 %15
  call void @llvm.memcpy.p0.p0.i64(ptr align 8 %4, ptr align 8 %16, i64 88, i1 false), !tbaa.struct !193
  call void @llvm.lifetime.start.p0(i64 8, ptr %5) #15
  %17 = load ptr, ptr getelementptr inbounds nuw (%struct.redisServer, ptr @server, i32 0, i32 10), align 8, !tbaa !99
  %18 = load i32, ptr %3, align 4, !tbaa !14
  %19 = sext i32 %18 to i64
  %20 = getelementptr inbounds %struct.redisDb, ptr %17, i64 %19
  store ptr %20, ptr %5, align 8, !tbaa !12
  call void @llvm.lifetime.start.p0(i64 8, ptr %6) #15
  %21 = load ptr, ptr %2, align 8, !tbaa !12
  %22 = load i32, ptr %3, align 4, !tbaa !14
  %23 = sext i32 %22 to i64
  %24 = getelementptr inbounds %struct.redisDb, ptr %21, i64 %23
  store ptr %24, ptr %6, align 8, !tbaa !12
  %25 = load ptr, ptr %5, align 8, !tbaa !12
  %26 = load ptr, ptr %6, align 8, !tbaa !12
  call void @touchAllWatchedKeysInDb(ptr noundef %25, ptr noundef %26)
  %27 = load ptr, ptr %5, align 8, !tbaa !12
  %28 = load ptr, ptr %6, align 8, !tbaa !12
  call void @scanDatabaseForDeletedKeys(ptr noundef %27, ptr noundef %28)
  %29 = load ptr, ptr %6, align 8, !tbaa !12
  %30 = getelementptr inbounds nuw %struct.redisDb, ptr %29, i32 0, i32 0
  %31 = load ptr, ptr %30, align 8, !tbaa !16
  %32 = load ptr, ptr %5, align 8, !tbaa !12
  %33 = getelementptr inbounds nuw %struct.redisDb, ptr %32, i32 0, i32 0
  store ptr %31, ptr %33, align 8, !tbaa !16
  %34 = load ptr, ptr %6, align 8, !tbaa !12
  %35 = getelementptr inbounds nuw %struct.redisDb, ptr %34, i32 0, i32 1
  %36 = load ptr, ptr %35, align 8, !tbaa !88
  %37 = load ptr, ptr %5, align 8, !tbaa !12
  %38 = getelementptr inbounds nuw %struct.redisDb, ptr %37, i32 0, i32 1
  store ptr %36, ptr %38, align 8, !tbaa !88
  %39 = load ptr, ptr %6, align 8, !tbaa !12
  %40 = getelementptr inbounds nuw %struct.redisDb, ptr %39, i32 0, i32 2
  %41 = load ptr, ptr %40, align 8, !tbaa !101
  %42 = load ptr, ptr %5, align 8, !tbaa !12
  %43 = getelementptr inbounds nuw %struct.redisDb, ptr %42, i32 0, i32 2
  store ptr %41, ptr %43, align 8, !tbaa !101
  %44 = load ptr, ptr %6, align 8, !tbaa !12
  %45 = getelementptr inbounds nuw %struct.redisDb, ptr %44, i32 0, i32 8
  %46 = load i64, ptr %45, align 8, !tbaa !92
  %47 = load ptr, ptr %5, align 8, !tbaa !12
  %48 = getelementptr inbounds nuw %struct.redisDb, ptr %47, i32 0, i32 8
  store i64 %46, ptr %48, align 8, !tbaa !92
  %49 = load ptr, ptr %6, align 8, !tbaa !12
  %50 = getelementptr inbounds nuw %struct.redisDb, ptr %49, i32 0, i32 9
  %51 = load i64, ptr %50, align 8, !tbaa !93
  %52 = load ptr, ptr %5, align 8, !tbaa !12
  %53 = getelementptr inbounds nuw %struct.redisDb, ptr %52, i32 0, i32 9
  store i64 %51, ptr %53, align 8, !tbaa !93
  %54 = getelementptr inbounds nuw %struct.redisDb, ptr %4, i32 0, i32 0
  %55 = load ptr, ptr %54, align 8, !tbaa !16
  %56 = load ptr, ptr %6, align 8, !tbaa !12
  %57 = getelementptr inbounds nuw %struct.redisDb, ptr %56, i32 0, i32 0
  store ptr %55, ptr %57, align 8, !tbaa !16
  %58 = getelementptr inbounds nuw %struct.redisDb, ptr %4, i32 0, i32 1
  %59 = load ptr, ptr %58, align 8, !tbaa !88
  %60 = load ptr, ptr %6, align 8, !tbaa !12
  %61 = getelementptr inbounds nuw %struct.redisDb, ptr %60, i32 0, i32 1
  store ptr %59, ptr %61, align 8, !tbaa !88
  %62 = getelementptr inbounds nuw %struct.redisDb, ptr %4, i32 0, i32 2
  %63 = load ptr, ptr %62, align 8, !tbaa !101
  %64 = load ptr, ptr %6, align 8, !tbaa !12
  %65 = getelementptr inbounds nuw %struct.redisDb, ptr %64, i32 0, i32 2
  store ptr %63, ptr %65, align 8, !tbaa !101
  %66 = getelementptr inbounds nuw %struct.redisDb, ptr %4, i32 0, i32 8
  %67 = load i64, ptr %66, align 8, !tbaa !92
  %68 = load ptr, ptr %6, align 8, !tbaa !12
  %69 = getelementptr inbounds nuw %struct.redisDb, ptr %68, i32 0, i32 8
  store i64 %67, ptr %69, align 8, !tbaa !92
  %70 = getelementptr inbounds nuw %struct.redisDb, ptr %4, i32 0, i32 9
  %71 = load i64, ptr %70, align 8, !tbaa !93
  %72 = load ptr, ptr %6, align 8, !tbaa !12
  %73 = getelementptr inbounds nuw %struct.redisDb, ptr %72, i32 0, i32 9
  store i64 %71, ptr %73, align 8, !tbaa !93
  %74 = load ptr, ptr %5, align 8, !tbaa !12
  call void @scanDatabaseForReadyKeys(ptr noundef %74)
  call void @llvm.lifetime.end.p0(i64 8, ptr %6) #15
  call void @llvm.lifetime.end.p0(i64 8, ptr %5) #15
  call void @llvm.lifetime.end.p0(i64 88, ptr %4) #15
  br label %75

75:                                               ; preds = %12
  %76 = load i32, ptr %3, align 4, !tbaa !14
  %77 = add nsw i32 %76, 1
  store i32 %77, ptr %3, align 4, !tbaa !14
  br label %7, !llvm.loop !195

78:                                               ; preds = %11
  call void @trackingInvalidateKeysOnFlush(i32 noundef 1)
  call void @flushSlaveKeysWithExpireList()
  ret void
}