; Function Attrs: nounwind uwtable
define dso_local void @swapMainDbWithTempDb(ptr noundef %0) local_unnamed_addr #0 {
  %2 = load i32, ptr getelementptr inbounds nuw (i8, ptr @server, i64 6376), align 8, !tbaa !96
  %3 = icmp sgt i32 %2, 0
  br i1 %3, label %.lr.ph, label %._crit_edge

._crit_edge:                                      ; preds = %.lr.ph, %1
  tail call void @trackingInvalidateKeysOnFlush(i32 noundef 1) #20
  tail call void @flushSlaveKeysWithExpireList() #20
  ret void

.lr.ph:                                           ; preds = %1, %.lr.ph
  %indvars.iv = phi i64 [ %indvars.iv.next, %.lr.ph ], [ 0, %1 ]
  %4 = load ptr, ptr getelementptr inbounds nuw (i8, ptr @server, i64 64), align 8, !tbaa !94
  %5 = getelementptr inbounds nuw %struct.redisDb, ptr %4, i64 %indvars.iv
  %.sroa.0.0.copyload = load ptr, ptr %5, align 8, !tbaa !162
  %.sroa.4.0..sroa_idx = getelementptr inbounds nuw i8, ptr %5, i64 8
  %.sroa.4.0.copyload = load ptr, ptr %.sroa.4.0..sroa_idx, align 8, !tbaa !162
  %.sroa.5.0..sroa_idx = getelementptr inbounds nuw i8, ptr %5, i64 16
  %.sroa.5.0.copyload = load ptr, ptr %.sroa.5.0..sroa_idx, align 8, !tbaa !114
  %.sroa.620.0..sroa_idx = getelementptr inbounds nuw i8, ptr %5, i64 64
  %.sroa.620.0.copyload = load i64, ptr %.sroa.620.0..sroa_idx, align 8, !tbaa !144
  %.sroa.7.0..sroa_idx = getelementptr inbounds nuw i8, ptr %5, i64 72
  %.sroa.7.0.copyload = load i64, ptr %.sroa.7.0..sroa_idx, align 8, !tbaa !17
  %6 = getelementptr inbounds nuw %struct.redisDb, ptr %0, i64 %indvars.iv
  tail call void @touchAllWatchedKeysInDb(ptr noundef nonnull %5, ptr noundef %6) #20
  tail call void @scanDatabaseForDeletedKeys(ptr noundef nonnull %5, ptr noundef %6)
  %7 = load ptr, ptr %6, align 8, !tbaa !6
  store ptr %7, ptr %5, align 8, !tbaa !6
  %8 = getelementptr inbounds nuw i8, ptr %6, i64 8
  %9 = load ptr, ptr %8, align 8, !tbaa !72
  store ptr %9, ptr %.sroa.4.0..sroa_idx, align 8, !tbaa !72
  %10 = getelementptr inbounds nuw i8, ptr %6, i64 16
  %11 = load ptr, ptr %10, align 8, !tbaa !97
  store ptr %11, ptr %.sroa.5.0..sroa_idx, align 8, !tbaa !97
  %12 = getelementptr inbounds nuw i8, ptr %6, i64 64
  %13 = load i64, ptr %12, align 8, !tbaa !163
  store i64 %13, ptr %.sroa.620.0..sroa_idx, align 8, !tbaa !163
  %14 = getelementptr inbounds nuw i8, ptr %6, i64 72
  %15 = load i64, ptr %14, align 8, !tbaa !164
  store i64 %15, ptr %.sroa.7.0..sroa_idx, align 8, !tbaa !164
  store ptr %.sroa.0.0.copyload, ptr %6, align 8, !tbaa !6
  store ptr %.sroa.4.0.copyload, ptr %8, align 8, !tbaa !72
  store ptr %.sroa.5.0.copyload, ptr %10, align 8, !tbaa !97
  store i64 %.sroa.620.0.copyload, ptr %12, align 8, !tbaa !163
  store i64 %.sroa.7.0.copyload, ptr %14, align 8, !tbaa !164
  tail call void @scanDatabaseForReadyKeys(ptr noundef nonnull %5)
  %indvars.iv.next = add nuw nsw i64 %indvars.iv, 1
  %16 = load i32, ptr getelementptr inbounds nuw (i8, ptr @server, i64 6376), align 8, !tbaa !96
  %17 = sext i32 %16 to i64
  %18 = icmp slt i64 %indvars.iv.next, %17
  br i1 %18, label %.lr.ph, label %._crit_edge, !llvm.loop !165
}